; Function Attrs: null_pointer_is_valid sspstrong uwtable
define internal i32 @dissect_h245_NonStandardIdentifier(ptr noundef %0, i32 noundef %1, ptr noundef %2, ptr noundef %3, i32 noundef %4) #1 {
  %6 = alloca i32, align 4
  call void @llvm.lifetime.start.p0(i64 4, ptr nonnull %6) #13
  store ptr @.str.2967, ptr @nsiOID, align 8
  store i32 0, ptr @h221NonStandard, align 4
  %7 = load i32, ptr @ett_h245_NonStandardIdentifier, align 4
  %8 = call i32 @dissect_per_choice(ptr noundef %0, i32 noundef %1, ptr noundef %2, ptr noundef %3, i32 noundef %4, i32 noundef %7, ptr noundef nonnull @NonStandardIdentifier_choice, ptr noundef nonnull %6)
  %9 = load i32, ptr %6, align 4
  switch i32 %9, label %18 [
    i32 0, label %10
    i32 1, label %14
  ]

10:                                               ; preds = %5
  %11 = load ptr, ptr @nsp_object_dissector_table, align 8
  %12 = load ptr, ptr @nsiOID, align 8
  %13 = call ptr @dissector_get_string_handle(ptr noundef %11, ptr noundef %12)
  br label %18

14:                                               ; preds = %5
  %15 = load ptr, ptr @nsp_h221_dissector_table, align 8
  %16 = load i32, ptr @h221NonStandard, align 4
  %17 = call ptr @dissector_get_uint_handle(ptr noundef %15, i32 noundef %16)
  br label %18

18:                                               ; preds = %5, %14, %10
  %.sink = phi ptr [ %17, %14 ], [ %13, %10 ], [ null, %5 ]
  store ptr %.sink, ptr @nsp_handle, align 8
  call void @llvm.lifetime.end.p0(i64 4, ptr nonnull %6) #13
  ret i32 %8
}